target datalayout = "e-m:e-p270:32:32-p271:32:32-p272:64:64-i64:64-i128:128-f80:128-n8:16:32:64-S128"
target triple = "x86_64-pc-linux-gnu"

%union.pthread_mutex_t = type { %struct.__pthread_mutex_s }
%struct.__pthread_mutex_s = type { i32, i32, i32, i32, i32, i16, i16, %struct.__pthread_internal_list }
%struct.__pthread_internal_list = type { ptr, ptr }
%struct.WOLFSSL_SESSION = type { i32, i32, %struct.wolfSSL_RefWithMutex, [32 x i8], i8, ptr, i8, i32, i32, [32 x i8], i8, [48 x i8], i16, i8, i8, i16, [20 x i8], i16, i8 }
%struct.wolfSSL_RefWithMutex = type { %union.pthread_mutex_t, i32 }

; Function Attrs: nounwind uwtable
define i32 @wolfSSL_CTX_add_session(ptr noundef %0, ptr noundef %1) #0 {
  %3 = alloca i32, align 4
  %4 = alloca ptr, align 8
  %5 = alloca ptr, align 8
  %6 = alloca i32, align 4
  %7 = alloca ptr, align 8
  %8 = alloca i8, align 1
  %9 = alloca i32, align 4
  store ptr %0, ptr %4, align 8, !tbaa !24
  store ptr %1, ptr %5, align 8, !tbaa !53
  call void @llvm.lifetime.start.p0(i64 4, ptr %6) #9
  store i32 0, ptr %6, align 4, !tbaa !7
  call void @llvm.lifetime.start.p0(i64 8, ptr %7) #9
  store ptr null, ptr %7, align 8, !tbaa !21
  call void @llvm.lifetime.start.p0(i64 1, ptr %8) #9
  store i8 0, ptr %8, align 1, !tbaa !20
  br label %10

10:                                               ; preds = %2
  br label %11

11:                                               ; preds = %10
  br label %12

12:                                               ; preds = %11
  %13 = load ptr, ptr %5, align 8, !tbaa !53
  %14 = call ptr @ClientSessionToSession(ptr noundef %13)
  store ptr %14, ptr %5, align 8, !tbaa !53
  %15 = load ptr, ptr %5, align 8, !tbaa !53
  %16 = icmp eq ptr %15, null
  br i1 %16, label %17, label %18

17:                                               ; preds = %12
  store i32 0, ptr %3, align 4
  store i32 1, ptr %9, align 4
  br label %48

18:                                               ; preds = %12
  %19 = load ptr, ptr %5, align 8, !tbaa !53
  %20 = getelementptr inbounds nuw %struct.WOLFSSL_SESSION, ptr %19, i32 0, i32 4
  %21 = load i8, ptr %20, align 8
  %22 = and i8 %21, 1
  %23 = icmp ne i8 %22, 0
  br i1 %23, label %24, label %28

24:                                               ; preds = %18
  %25 = load ptr, ptr %5, align 8, !tbaa !53
  %26 = getelementptr inbounds nuw %struct.WOLFSSL_SESSION, ptr %25, i32 0, i32 3
  %27 = getelementptr inbounds [32 x i8], ptr %26, i64 0, i64 0
  store ptr %27, ptr %7, align 8, !tbaa !21
  store i8 32, ptr %8, align 1, !tbaa !20
  br label %35

28:                                               ; preds = %18
  %29 = load ptr, ptr %5, align 8, !tbaa !53
  %30 = getelementptr inbounds nuw %struct.WOLFSSL_SESSION, ptr %29, i32 0, i32 9
  %31 = getelementptr inbounds [32 x i8], ptr %30, i64 0, i64 0
  store ptr %31, ptr %7, align 8, !tbaa !21
  %32 = load ptr, ptr %5, align 8, !tbaa !53
  %33 = getelementptr inbounds nuw %struct.WOLFSSL_SESSION, ptr %32, i32 0, i32 10
  %34 = load i8, ptr %33, align 4, !tbaa !55
  store i8 %34, ptr %8, align 1, !tbaa !20
  br label %35

35:                                               ; preds = %28, %24
  %36 = load ptr, ptr %4, align 8, !tbaa !24
  %37 = load ptr, ptr %5, align 8, !tbaa !53
  %38 = load ptr, ptr %7, align 8, !tbaa !21
  %39 = load i8, ptr %8, align 1, !tbaa !20
  %40 = load ptr, ptr %5, align 8, !tbaa !53
  %41 = getelementptr inbounds nuw %struct.WOLFSSL_SESSION, ptr %40, i32 0, i32 6
  %42 = load i8, ptr %41, align 8, !tbaa !91
  %43 = zext i8 %42 to i32
  %44 = call i32 @AddSessionToCache(ptr noundef %36, ptr noundef %37, ptr noundef %38, i8 noundef zeroext %39, ptr noundef null, i32 noundef %43, i16 noundef zeroext 0, ptr noundef null)
  store i32 %44, ptr %6, align 4, !tbaa !7
  %45 = load i32, ptr %6, align 4, !tbaa !7
  %46 = icmp eq i32 %45, 0
  %47 = select i1 %46, i32 1, i32 0
  store i32 %47, ptr %3, align 4
  store i32 1, ptr %9, align 4
  br label %48

48:                                               ; preds = %35, %17
  call void @llvm.lifetime.end.p0(i64 1, ptr %8) #9
  call void @llvm.lifetime.end.p0(i64 8, ptr %7) #9
  call void @llvm.lifetime.end.p0(i64 4, ptr %6) #9
  %49 = load i32, ptr %3, align 4
  ret i32 %49
}