; Function Attrs: nounwind uwtable
define range(i32 0, 2) i32 @wolfSSL_CTX_add_session(ptr noundef readnone captures(none) %0, ptr noundef %1) local_unnamed_addr #0 {
  %3 = tail call ptr @ClientSessionToSession(ptr noundef %1)
  %4 = icmp eq ptr %3, null
  br i1 %4, label %22, label %5

5:                                                ; preds = %2
  %6 = getelementptr inbounds nuw i8, ptr %3, i64 88
  %7 = load i8, ptr %6, align 8
  %8 = and i8 %7, 1
  %.not = icmp eq i8 %8, 0
  br i1 %.not, label %11, label %9

9:                                                ; preds = %5
  %10 = getelementptr inbounds nuw i8, ptr %3, i64 56
  br label %15

11:                                               ; preds = %5
  %12 = getelementptr inbounds nuw i8, ptr %3, i64 116
  %13 = getelementptr inbounds nuw i8, ptr %3, i64 148
  %14 = load i8, ptr %13, align 4, !tbaa !77
  br label %15

15:                                               ; preds = %11, %9
  %.012 = phi ptr [ %10, %9 ], [ %12, %11 ]
  %.0 = phi i8 [ 32, %9 ], [ %14, %11 ]
  %16 = getelementptr inbounds nuw i8, ptr %3, i64 104
  %17 = load i8, ptr %16, align 8, !tbaa !79
  %18 = zext i8 %17 to i32
  %19 = tail call i32 @AddSessionToCache(ptr poison, ptr noundef nonnull %3, ptr noundef nonnull %.012, i8 noundef zeroext %.0, ptr poison, i32 noundef %18, i16 noundef zeroext 0, ptr noundef null)
  %20 = icmp eq i32 %19, 0
  %21 = zext i1 %20 to i32
  br label %22

22:                                               ; preds = %2, %15
  %.013 = phi i32 [ %21, %15 ], [ 0, %2 ]
  ret i32 %.013
}